target datalayout = "e-m:e-p270:32:32-p271:32:32-p272:64:64-i64:64-i128:128-f80:128-n8:16:32:64-S128"
target triple = "x86_64-pc-linux-gnu"

%struct.aofManifest = type { ptr, ptr, ptr, i64, i64, i32 }
%struct.listIter = type { ptr, i32 }
%struct.listNode = type { ptr, ptr, ptr }

@.str.1 = private unnamed_addr constant [6 x i8] c"aof.c\00", align 1
@.str.15 = private unnamed_addr constant [11 x i8] c"am != NULL\00", align 1

; Function Attrs: nounwind uwtable
define dso_local ptr @getAofManifestAsString(ptr noundef %0) #0 {
  %2 = alloca ptr, align 8
  %3 = alloca ptr, align 8
  %4 = alloca ptr, align 8
  %5 = alloca %struct.listIter, align 8
  %6 = alloca ptr, align 8
  %7 = alloca ptr, align 8
  store ptr %0, ptr %2, align 8, !tbaa !5
  %8 = load ptr, ptr %2, align 8, !tbaa !5
  %9 = icmp ne ptr %8, null
  %10 = xor i1 %9, true
  %11 = xor i1 %10, true
  %12 = zext i1 %11 to i32
  %13 = sext i32 %12 to i64
  %14 = call i64 @llvm.expect.i64(i64 %13, i64 1)
  %15 = icmp ne i64 %14, 0
  br i1 %15, label %16, label %17

16:                                               ; preds = %1
  br label %19

17:                                               ; preds = %1
  call void @_serverAssert(ptr noundef @.str.15, ptr noundef @.str.1, i32 noundef 197)
  call void @abort() #14
  unreachable

18:                                               ; No predecessors!
  br label %19

19:                                               ; preds = %18, %16
  call void @llvm.lifetime.start.p0(i64 8, ptr %3) #12
  %20 = call ptr @sdsempty()
  store ptr %20, ptr %3, align 8, !tbaa !18
  call void @llvm.lifetime.start.p0(i64 8, ptr %4) #12
  call void @llvm.lifetime.start.p0(i64 16, ptr %5) #12
  %21 = load ptr, ptr %2, align 8, !tbaa !5
  %22 = getelementptr inbounds nuw %struct.aofManifest, ptr %21, i32 0, i32 0
  %23 = load ptr, ptr %22, align 8, !tbaa !33
  %24 = icmp ne ptr %23, null
  br i1 %24, label %25, label %31

25:                                               ; preds = %19
  %26 = load ptr, ptr %3, align 8, !tbaa !18
  %27 = load ptr, ptr %2, align 8, !tbaa !5
  %28 = getelementptr inbounds nuw %struct.aofManifest, ptr %27, i32 0, i32 0
  %29 = load ptr, ptr %28, align 8, !tbaa !33
  %30 = call ptr @aofInfoFormat(ptr noundef %26, ptr noundef %29)
  store ptr %30, ptr %3, align 8, !tbaa !18
  br label %31

31:                                               ; preds = %25, %19
  %32 = load ptr, ptr %2, align 8, !tbaa !5
  %33 = getelementptr inbounds nuw %struct.aofManifest, ptr %32, i32 0, i32 2
  %34 = load ptr, ptr %33, align 8, !tbaa !28
  call void @listRewind(ptr noundef %34, ptr noundef %5)
  br label %35

35:                                               ; preds = %38, %31
  %36 = call ptr @listNext(ptr noundef %5)
  store ptr %36, ptr %4, align 8, !tbaa !59
  %37 = icmp ne ptr %36, null
  br i1 %37, label %38, label %45

38:                                               ; preds = %35
  call void @llvm.lifetime.start.p0(i64 8, ptr %6) #12
  %39 = load ptr, ptr %4, align 8, !tbaa !59
  %40 = getelementptr inbounds nuw %struct.listNode, ptr %39, i32 0, i32 2
  %41 = load ptr, ptr %40, align 8, !tbaa !60
  store ptr %41, ptr %6, align 8, !tbaa !5
  %42 = load ptr, ptr %3, align 8, !tbaa !18
  %43 = load ptr, ptr %6, align 8, !tbaa !5
  %44 = call ptr @aofInfoFormat(ptr noundef %42, ptr noundef %43)
  store ptr %44, ptr %3, align 8, !tbaa !18
  call void @llvm.lifetime.end.p0(i64 8, ptr %6) #12
  br label %35, !llvm.loop !62

45:                                               ; preds = %35
  %46 = load ptr, ptr %2, align 8, !tbaa !5
  %47 = getelementptr inbounds nuw %struct.aofManifest, ptr %46, i32 0, i32 1
  %48 = load ptr, ptr %47, align 8, !tbaa !25
  call void @listRewind(ptr noundef %48, ptr noundef %5)
  br label %49

49:                                               ; preds = %52, %45
  %50 = call ptr @listNext(ptr noundef %5)
  store ptr %50, ptr %4, align 8, !tbaa !59
  %51 = icmp ne ptr %50, null
  br i1 %51, label %52, label %59

52:                                               ; preds = %49
  call void @llvm.lifetime.start.p0(i64 8, ptr %7) #12
  %53 = load ptr, ptr %4, align 8, !tbaa !59
  %54 = getelementptr inbounds nuw %struct.listNode, ptr %53, i32 0, i32 2
  %55 = load ptr, ptr %54, align 8, !tbaa !60
  store ptr %55, ptr %7, align 8, !tbaa !5
  %56 = load ptr, ptr %3, align 8, !tbaa !18
  %57 = load ptr, ptr %7, align 8, !tbaa !5
  %58 = call ptr @aofInfoFormat(ptr noundef %56, ptr noundef %57)
  store ptr %58, ptr %3, align 8, !tbaa !18
  call void @llvm.lifetime.end.p0(i64 8, ptr %7) #12
  br label %49, !llvm.loop !64

59:                                               ; preds = %49
  %60 = load ptr, ptr %3, align 8, !tbaa !18
  call void @llvm.lifetime.end.p0(i64 16, ptr %5) #12
  call void @llvm.lifetime.end.p0(i64 8, ptr %4) #12
  call void @llvm.lifetime.end.p0(i64 8, ptr %3) #12
  ret ptr %60
}