; Function Attrs: nounwind uwtable
define dso_local ptr @getAofManifestAsString(ptr noundef readonly captures(address_is_null) %0) local_unnamed_addr #0 {
  %2 = alloca %struct.listIter, align 8
  %.not = icmp eq ptr %0, null
  br i1 %.not, label %3, label %4, !prof !5

3:                                                ; preds = %1
  tail call void @_serverAssert(ptr noundef nonnull @.str.15, ptr noundef nonnull @.str.1, i32 noundef 197) #20
  tail call void @abort() #21
  unreachable

4:                                                ; preds = %1
  %5 = tail call ptr @sdsempty() #20
  call void @llvm.lifetime.start.p0(i64 16, ptr nonnull %2) #20
  %6 = load ptr, ptr %0, align 8, !tbaa !32
  %.not17 = icmp eq ptr %6, null
  br i1 %.not17, label %9, label %7

7:                                                ; preds = %4
  %8 = tail call ptr @aofInfoFormat(ptr noundef %5, ptr noundef nonnull %6)
  br label %9

9:                                                ; preds = %7, %4
  %.0 = phi ptr [ %8, %7 ], [ %5, %4 ]
  %10 = getelementptr inbounds nuw i8, ptr %0, i64 16
  %11 = load ptr, ptr %10, align 8, !tbaa !27
  call void @listRewind(ptr noundef %11, ptr noundef nonnull %2) #20
  %12 = call ptr @listNext(ptr noundef nonnull %2) #20
  %.not1820 = icmp eq ptr %12, null
  br i1 %.not1820, label %._crit_edge, label %.lr.ph

.lr.ph:                                           ; preds = %9, %.lr.ph
  %13 = phi ptr [ %17, %.lr.ph ], [ %12, %9 ]
  %.121 = phi ptr [ %16, %.lr.ph ], [ %.0, %9 ]
  %14 = getelementptr inbounds nuw i8, ptr %13, i64 16
  %15 = load ptr, ptr %14, align 8, !tbaa !58
  %16 = call ptr @aofInfoFormat(ptr noundef %.121, ptr noundef %15)
  %17 = call ptr @listNext(ptr noundef nonnull %2) #20
  %.not18 = icmp eq ptr %17, null
  br i1 %.not18, label %._crit_edge, label %.lr.ph, !llvm.loop !60

._crit_edge:                                      ; preds = %.lr.ph, %9
  %.1.lcssa = phi ptr [ %.0, %9 ], [ %16, %.lr.ph ]
  %18 = getelementptr inbounds nuw i8, ptr %0, i64 8
  %19 = load ptr, ptr %18, align 8, !tbaa !24
  call void @listRewind(ptr noundef %19, ptr noundef nonnull %2) #20
  %20 = call ptr @listNext(ptr noundef nonnull %2) #20
  %.not1922 = icmp eq ptr %20, null
  br i1 %.not1922, label %._crit_edge26, label %.lr.ph25

.lr.ph25:                                         ; preds = %._crit_edge, %.lr.ph25
  %21 = phi ptr [ %25, %.lr.ph25 ], [ %20, %._crit_edge ]
  %.223 = phi ptr [ %24, %.lr.ph25 ], [ %.1.lcssa, %._crit_edge ]
  %22 = getelementptr inbounds nuw i8, ptr %21, i64 16
  %23 = load ptr, ptr %22, align 8, !tbaa !58
  %24 = call ptr @aofInfoFormat(ptr noundef %.223, ptr noundef %23)
  %25 = call ptr @listNext(ptr noundef nonnull %2) #20
  %.not19 = icmp eq ptr %25, null
  br i1 %.not19, label %._crit_edge26, label %.lr.ph25, !llvm.loop !62

._crit_edge26:                                    ; preds = %.lr.ph25, %._crit_edge
  %.2.lcssa = phi ptr [ %.1.lcssa, %._crit_edge ], [ %24, %.lr.ph25 ]
  call void @llvm.lifetime.end.p0(i64 16, ptr nonnull %2) #20
  ret ptr %.2.lcssa
}